; Function Attrs: nounwind uwtable
define void @Nwk_ManMinimumBase(ptr noundef readonly captures(none) %0, i32 noundef %1) local_unnamed_addr #3 {
  %3 = tail call noalias dereferenceable_or_null(16) ptr @malloc(i64 noundef 16) #18
  %4 = getelementptr inbounds nuw i8, ptr %3, i64 4
  store i32 0, ptr %4, align 4, !tbaa !51
  store i32 65536, ptr %3, align 8, !tbaa !54
  %5 = tail call noalias dereferenceable_or_null(262144) ptr @malloc(i64 noundef 262144) #18
  %6 = getelementptr inbounds nuw i8, ptr %3, i64 8
  store ptr %5, ptr %6, align 8, !tbaa !55
  %7 = getelementptr inbounds nuw i8, ptr %0, i64 32
  %8 = load ptr, ptr %7, align 8, !tbaa !15
  %9 = getelementptr i8, ptr %8, i64 4
  %.val19 = load i32, ptr %9, align 4, !tbaa !16
  %10 = icmp sgt i32 %.val19, 0
  br i1 %10, label %.lr.ph, label %.critedge.thread

.lr.ph:                                           ; preds = %2, %22
  %11 = phi ptr [ %23, %22 ], [ %8, %2 ]
  %indvars.iv = phi i64 [ %indvars.iv.next, %22 ], [ 0, %2 ]
  %.021 = phi i32 [ %.1, %22 ], [ 0, %2 ]
  %12 = getelementptr i8, ptr %11, i64 8
  %.val17 = load ptr, ptr %12, align 8, !tbaa !18
  %13 = getelementptr inbounds nuw ptr, ptr %.val17, i64 %indvars.iv
  %14 = load ptr, ptr %13, align 8, !tbaa !19
  %15 = icmp eq ptr %14, null
  br i1 %15, label %22, label %16

16:                                               ; preds = %.lr.ph
  %17 = getelementptr i8, ptr %14, i64 32
  %.val18 = load i32, ptr %17, align 8
  %18 = and i32 %.val18, 7
  %.not = icmp eq i32 %18, 3
  br i1 %.not, label %19, label %22

19:                                               ; preds = %16
  %20 = tail call i32 @Nwk_ManMinimumBaseNode(ptr noundef nonnull %14, ptr noundef nonnull %3, i32 noundef %1)
  %21 = add nsw i32 %20, %.021
  %.pre = load ptr, ptr %7, align 8, !tbaa !15
  br label %22

22:                                               ; preds = %19, %16, %.lr.ph
  %23 = phi ptr [ %11, %.lr.ph ], [ %.pre, %19 ], [ %11, %16 ]
  %.1 = phi i32 [ %.021, %.lr.ph ], [ %21, %19 ], [ %.021, %16 ]
  %indvars.iv.next = add nuw nsw i64 %indvars.iv, 1
  %24 = getelementptr i8, ptr %23, i64 4
  %.val = load i32, ptr %24, align 4, !tbaa !16
  %25 = sext i32 %.val to i64
  %26 = icmp slt i64 %indvars.iv.next, %25
  br i1 %26, label %.lr.ph, label %.critedge, !llvm.loop !80

.critedge:                                        ; preds = %22
  %27 = icmp ne i32 %1, 0
  %28 = icmp ne i32 %.1, 0
  %or.cond = select i1 %27, i1 %28, i1 false
  br i1 %or.cond, label %29, label %.critedge.thread

29:                                               ; preds = %.critedge
  %30 = tail call i32 (ptr, ...) @printf(ptr noundef nonnull dereferenceable(1) @.str.33, i32 noundef %.1)
  br label %.critedge.thread

.critedge.thread:                                 ; preds = %2, %29, %.critedge
  %31 = load ptr, ptr %6, align 8, !tbaa !55
  %.not.i = icmp eq ptr %31, null
  br i1 %.not.i, label %Vec_IntFree.exit, label %32

32:                                               ; preds = %.critedge.thread
  tail call void @free(ptr noundef nonnull %31) #17
  br label %Vec_IntFree.exit

Vec_IntFree.exit:                                 ; preds = %.critedge.thread, %32
  tail call void @free(ptr noundef nonnull %3) #17
  ret void
}